; Function Attrs: mustprogress nofree norecurse nosync nounwind willreturn memory(argmem: write) uwtable
define range(i32 0, 6) i32 @png_permit_mng_features(ptr noalias noundef writeonly %0, i32 noundef %1) local_unnamed_addr #7 {
  %3 = icmp eq ptr %0, null
  br i1 %3, label %7, label %4

4:                                                ; preds = %2
  %5 = and i32 %1, 5
  %6 = getelementptr inbounds i8, ptr %0, i64 992
  store i32 %5, ptr %6, align 8
  br label %7

7:                                                ; preds = %2, %4
  %.0 = phi i32 [ %5, %4 ], [ 0, %2 ]
  ret i32 %.0
}